; Function Attrs: nofree norecurse nosync nounwind memory(readwrite, inaccessiblemem: none) uwtable
define internal noundef i32 @apv_metadata_update_fragment(ptr noundef readonly captures(none) %0, ptr readnone captures(none) %1, ptr noundef readonly captures(none) %2) #2 {
  %4 = getelementptr inbounds nuw i8, ptr %2, i64 32
  %5 = load i32, ptr %4, align 8, !tbaa !4
  %6 = icmp sgt i32 %5, 0
  br i1 %6, label %.lr.ph, label %._crit_edge

.lr.ph:                                           ; preds = %3
  %7 = getelementptr inbounds nuw i8, ptr %2, i64 40
  %8 = load ptr, ptr %7, align 8, !tbaa !14
  %9 = getelementptr i8, ptr %0, i64 16
  %wide.trip.count = zext nneg i32 %5 to i64
  br label %10

10:                                               ; preds = %.lr.ph, %apv_metadata_update_frame_header.exit
  %indvars.iv = phi i64 [ 0, %.lr.ph ], [ %indvars.iv.next, %apv_metadata_update_frame_header.exit ]
  %11 = getelementptr inbounds nuw %struct.CodedBitstreamUnit, ptr %8, i64 %indvars.iv
  %12 = load i32, ptr %11, align 8, !tbaa !15
  %13 = icmp eq i32 %12, 1
  br i1 %13, label %14, label %apv_metadata_update_frame_header.exit

14:                                               ; preds = %10
  %15 = getelementptr inbounds nuw i8, ptr %11, i64 40
  %16 = load ptr, ptr %15, align 8, !tbaa !17
  %.val = load ptr, ptr %9, align 8, !tbaa !18
  %17 = getelementptr inbounds nuw i8, ptr %.val, i64 80
  %18 = load i32, ptr %17, align 8, !tbaa !24
  %19 = icmp sgt i32 %18, -1
  br i1 %19, label %33, label %20

20:                                               ; preds = %14
  %21 = getelementptr inbounds nuw i8, ptr %.val, i64 84
  %22 = load i32, ptr %21, align 4, !tbaa !29
  %23 = icmp sgt i32 %22, -1
  br i1 %23, label %.thread.i, label %24

24:                                               ; preds = %20
  %25 = getelementptr inbounds nuw i8, ptr %.val, i64 88
  %26 = load i32, ptr %25, align 8, !tbaa !30
  %27 = icmp sgt i32 %26, -1
  br i1 %27, label %.thread.i, label %28

28:                                               ; preds = %24
  %29 = getelementptr inbounds nuw i8, ptr %.val, i64 92
  %30 = load i32, ptr %29, align 4, !tbaa !31
  %31 = icmp sgt i32 %30, -1
  br i1 %31, label %.thread.i, label %apv_metadata_update_frame_header.exit

.thread.i:                                        ; preds = %28, %24, %20
  %32 = getelementptr inbounds nuw i8, ptr %16, i64 25
  store i8 1, ptr %32, align 1, !tbaa !32
  br label %37

33:                                               ; preds = %14
  %34 = getelementptr inbounds nuw i8, ptr %16, i64 25
  store i8 1, ptr %34, align 1, !tbaa !32
  %35 = trunc i32 %18 to i8
  %36 = getelementptr inbounds nuw i8, ptr %16, i64 26
  store i8 %35, ptr %36, align 2, !tbaa !37
  %.phi.trans.insert.i = getelementptr inbounds nuw i8, ptr %.val, i64 84
  %.pre.i = load i32, ptr %.phi.trans.insert.i, align 4, !tbaa !29
  br label %37

37:                                               ; preds = %33, %.thread.i
  %38 = phi i32 [ %22, %.thread.i ], [ %.pre.i, %33 ]
  %39 = icmp sgt i32 %38, -1
  br i1 %39, label %40, label %43

40:                                               ; preds = %37
  %41 = trunc i32 %38 to i8
  %42 = getelementptr inbounds nuw i8, ptr %16, i64 27
  store i8 %41, ptr %42, align 1, !tbaa !38
  br label %43

43:                                               ; preds = %40, %37
  %44 = getelementptr inbounds nuw i8, ptr %.val, i64 88
  %45 = load i32, ptr %44, align 8, !tbaa !30
  %46 = icmp sgt i32 %45, -1
  br i1 %46, label %47, label %50

47:                                               ; preds = %43
  %48 = trunc i32 %45 to i8
  %49 = getelementptr inbounds nuw i8, ptr %16, i64 28
  store i8 %48, ptr %49, align 4, !tbaa !39
  br label %50

50:                                               ; preds = %47, %43
  %51 = getelementptr inbounds nuw i8, ptr %.val, i64 92
  %52 = load i32, ptr %51, align 4, !tbaa !31
  %53 = icmp sgt i32 %52, -1
  br i1 %53, label %54, label %apv_metadata_update_frame_header.exit

54:                                               ; preds = %50
  %55 = trunc i32 %52 to i8
  %56 = getelementptr inbounds nuw i8, ptr %16, i64 29
  store i8 %55, ptr %56, align 1, !tbaa !40
  br label %apv_metadata_update_frame_header.exit

apv_metadata_update_frame_header.exit:            ; preds = %54, %50, %28, %10
  %indvars.iv.next = add nuw nsw i64 %indvars.iv, 1
  %exitcond.not = icmp eq i64 %indvars.iv.next, %wide.trip.count
  br i1 %exitcond.not, label %._crit_edge, label %10, !llvm.loop !41

._crit_edge:                                      ; preds = %apv_metadata_update_frame_header.exit, %3
  ret i32 0
}